target datalayout = "e-m:e-p270:32:32-p271:32:32-p272:64:64-i64:64-i128:128-f80:128-n8:16:32:64-S128"
target triple = "x86_64-pc-linux-gnu"

%struct.loopargs_st = type { ptr, ptr, ptr, ptr, ptr, ptr, ptr, [16 x i8], i64, i64, i64, [7 x ptr], [7 x ptr], [7 x ptr], [7 x ptr], [2 x ptr], [2 x ptr], [22 x ptr], [22 x ptr], [24 x ptr], [2 x ptr], [2 x ptr], [1 x ptr], [1 x ptr], [1 x ptr], ptr, ptr, [24 x i64], [5 x ptr], ptr, ptr, ptr, ptr, [111 x ptr], [111 x ptr], [111 x ptr], [111 x i64], [111 x i64], [111 x ptr], [111 x ptr], [111 x ptr], [111 x ptr], [111 x ptr], [111 x ptr], [111 x i64], [111 x i64], [111 x ptr] }

@bio_err = external global ptr, align 8
@testmode = internal global i32 0, align 4
@lengths = internal global ptr @lengths_list, align 8
@aead = internal global i32 0, align 4
@testnum = internal global i32 0, align 4
@mode_op = internal global i32 0, align 4
@.str.169 = private unnamed_addr constant [26 x i8] c"\0AFailed to set iv length\0A\00", align 1
@.str.170 = private unnamed_addr constant [27 x i8] c"\0AFailed to set tag length\0A\00", align 1
@aead_iv = internal global [12 x i8] zeroinitializer, align 1
@run = internal global i32 0, align 4
@.str.438 = private unnamed_addr constant [27 x i8] c"\0AFailed to set key and iv\0A\00", align 1
@.str.439 = private unnamed_addr constant [19 x i8] c"\0AFailed to set iv\0A\00", align 1
@.str.440 = private unnamed_addr constant [20 x i8] c"\0AFailed to set tag\0A\00", align 1
@.str.441 = private unnamed_addr constant [34 x i8] c"\0ACouldn't set cipher text length\0A\00", align 1
@.str.442 = private unnamed_addr constant [38 x i8] c"\0ACouldn't insert AAD when decrypting\0A\00", align 1
@.str.443 = private unnamed_addr constant [29 x i8] c"\0AFailed to decrypt the data\0A\00", align 1
@aad = internal global <{ i8, [12 x i8] }> <{ i8 -52, [12 x i8] zeroinitializer }>, align 1

; Function Attrs: nounwind uwtable
define internal i32 @EVP_Update_loop_aead_dec(ptr noundef %0) #0 {
  %2 = alloca ptr, align 8
  %3 = alloca ptr, align 8
  %4 = alloca ptr, align 8
  %5 = alloca ptr, align 8
  %6 = alloca ptr, align 8
  %7 = alloca [16 x i8], align 16
  %8 = alloca ptr, align 8
  %9 = alloca i32, align 4
  %10 = alloca i32, align 4
  %11 = alloca i32, align 4
  store ptr %0, ptr %2, align 8, !tbaa !115
  call void @llvm.lifetime.start.p0(i64 8, ptr %3) #11
  %12 = load ptr, ptr %2, align 8, !tbaa !115
  %13 = load ptr, ptr %12, align 8, !tbaa !37
  store ptr %13, ptr %3, align 8, !tbaa !37
  call void @llvm.lifetime.start.p0(i64 8, ptr %4) #11
  %14 = load ptr, ptr %3, align 8, !tbaa !37
  %15 = getelementptr inbounds nuw %struct.loopargs_st, ptr %14, i32 0, i32 2
  %16 = load ptr, ptr %15, align 8, !tbaa !92
  store ptr %16, ptr %4, align 8, !tbaa !39
  call void @llvm.lifetime.start.p0(i64 8, ptr %5) #11
  %17 = load ptr, ptr %3, align 8, !tbaa !37
  %18 = getelementptr inbounds nuw %struct.loopargs_st, ptr %17, i32 0, i32 3
  %19 = load ptr, ptr %18, align 8, !tbaa !93
  store ptr %19, ptr %5, align 8, !tbaa !39
  call void @llvm.lifetime.start.p0(i64 8, ptr %6) #11
  %20 = load ptr, ptr %3, align 8, !tbaa !37
  %21 = getelementptr inbounds nuw %struct.loopargs_st, ptr %20, i32 0, i32 6
  %22 = load ptr, ptr %21, align 8, !tbaa !140
  store ptr %22, ptr %6, align 8, !tbaa !39
  call void @llvm.lifetime.start.p0(i64 16, ptr %7) #11
  call void @llvm.lifetime.start.p0(i64 8, ptr %8) #11
  %23 = load ptr, ptr %3, align 8, !tbaa !37
  %24 = getelementptr inbounds nuw %struct.loopargs_st, ptr %23, i32 0, i32 31
  %25 = load ptr, ptr %24, align 8, !tbaa !117
  store ptr %25, ptr %8, align 8, !tbaa !219
  call void @llvm.lifetime.start.p0(i64 4, ptr %9) #11
  call void @llvm.lifetime.start.p0(i64 4, ptr %10) #11
  call void @llvm.lifetime.start.p0(i64 4, ptr %11) #11
  store i32 0, ptr %11, align 4, !tbaa !4
  store i32 0, ptr %10, align 4, !tbaa !4
  br label %26

26:                                               ; preds = %146, %1
  %27 = load volatile i32, ptr @run, align 4, !tbaa !4
  %28 = icmp ne i32 %27, 0
  br i1 %28, label %29, label %35

29:                                               ; preds = %26
  %30 = load i32, ptr %10, align 4, !tbaa !4
  %31 = load i32, ptr @testmode, align 4, !tbaa !4
  %32 = icmp ne i32 %31, 0
  %33 = select i1 %32, i32 1, i32 2147483647
  %34 = icmp slt i32 %30, %33
  br label %35

35:                                               ; preds = %29, %26
  %36 = phi i1 [ false, %26 ], [ %34, %29 ]
  br i1 %36, label %37, label %149

37:                                               ; preds = %35
  %38 = load i32, ptr @mode_op, align 4, !tbaa !4
  %39 = icmp ne i32 %38, 65540
  br i1 %39, label %40, label %48

40:                                               ; preds = %37
  %41 = load ptr, ptr %8, align 8, !tbaa !219
  %42 = call i32 @EVP_CIPHER_CTX_ctrl(ptr noundef %41, i32 noundef 9, i32 noundef 12, ptr noundef null)
  %43 = icmp ne i32 %42, 0
  br i1 %43, label %47, label %44

44:                                               ; preds = %40
  %45 = load ptr, ptr @bio_err, align 8, !tbaa !53
  %46 = call i32 (ptr, ptr, ...) @BIO_printf(ptr noundef %45, ptr noundef @.str.169)
  call void @dofail()
  call void @exit(i32 noundef 1) #13
  unreachable

47:                                               ; preds = %40
  br label %48

48:                                               ; preds = %47, %37
  %49 = load i32, ptr @mode_op, align 4, !tbaa !4
  %50 = icmp ne i32 %49, 65540
  br i1 %50, label %51, label %65

51:                                               ; preds = %48
  %52 = load i32, ptr @mode_op, align 4, !tbaa !4
  %53 = icmp ne i32 %52, 6
  br i1 %53, label %54, label %65

54:                                               ; preds = %51
  %55 = load i32, ptr @mode_op, align 4, !tbaa !4
  %56 = icmp ne i32 %55, 65541
  br i1 %56, label %57, label %65

57:                                               ; preds = %54
  %58 = load ptr, ptr %8, align 8, !tbaa !219
  %59 = call i32 @EVP_CIPHER_CTX_ctrl(ptr noundef %58, i32 noundef 17, i32 noundef 16, ptr noundef null)
  %60 = icmp ne i32 %59, 0
  br i1 %60, label %64, label %61

61:                                               ; preds = %57
  %62 = load ptr, ptr @bio_err, align 8, !tbaa !53
  %63 = call i32 (ptr, ptr, ...) @BIO_printf(ptr noundef %62, ptr noundef @.str.170)
  call void @dofail()
  call void @exit(i32 noundef 1) #13
  unreachable

64:                                               ; preds = %57
  br label %65

65:                                               ; preds = %64, %54, %51, %48
  %66 = load ptr, ptr %8, align 8, !tbaa !219
  %67 = load ptr, ptr %6, align 8, !tbaa !39
  %68 = call i32 @EVP_CipherInit_ex(ptr noundef %66, ptr noundef null, ptr noundef null, ptr noundef %67, ptr noundef @aead_iv, i32 noundef -1)
  %69 = icmp ne i32 %68, 0
  br i1 %69, label %73, label %70

70:                                               ; preds = %65
  %71 = load ptr, ptr @bio_err, align 8, !tbaa !53
  %72 = call i32 (ptr, ptr, ...) @BIO_printf(ptr noundef %71, ptr noundef @.str.438)
  call void @dofail()
  call void @exit(i32 noundef 1) #13
  unreachable

73:                                               ; preds = %65
  %74 = load i32, ptr @mode_op, align 4, !tbaa !4
  %75 = icmp ne i32 %74, 65540
  br i1 %75, label %76, label %84

76:                                               ; preds = %73
  %77 = load ptr, ptr %8, align 8, !tbaa !219
  %78 = call i32 @EVP_DecryptInit_ex(ptr noundef %77, ptr noundef null, ptr noundef null, ptr noundef null, ptr noundef @aead_iv)
  %79 = icmp ne i32 %78, 0
  br i1 %79, label %83, label %80

80:                                               ; preds = %76
  %81 = load ptr, ptr @bio_err, align 8, !tbaa !53
  %82 = call i32 (ptr, ptr, ...) @BIO_printf(ptr noundef %81, ptr noundef @.str.439)
  call void @dofail()
  call void @exit(i32 noundef 1) #13
  unreachable

83:                                               ; preds = %76
  br label %84

84:                                               ; preds = %83, %73
  %85 = getelementptr inbounds [16 x i8], ptr %7, i64 0, i64 0
  %86 = load ptr, ptr %3, align 8, !tbaa !37
  %87 = getelementptr inbounds nuw %struct.loopargs_st, ptr %86, i32 0, i32 7
  %88 = getelementptr inbounds [16 x i8], ptr %87, i64 0, i64 0
  call void @llvm.memcpy.p0.p0.i64(ptr align 16 %85, ptr align 8 %88, i64 16, i1 false)
  %89 = load ptr, ptr %8, align 8, !tbaa !219
  %90 = getelementptr inbounds [16 x i8], ptr %7, i64 0, i64 0
  %91 = call i32 @EVP_CIPHER_CTX_ctrl(ptr noundef %89, i32 noundef 17, i32 noundef 16, ptr noundef %90)
  %92 = icmp ne i32 %91, 0
  br i1 %92, label %96, label %93

93:                                               ; preds = %84
  %94 = load ptr, ptr @bio_err, align 8, !tbaa !53
  %95 = call i32 (ptr, ptr, ...) @BIO_printf(ptr noundef %94, ptr noundef @.str.440)
  call void @dofail()
  call void @exit(i32 noundef 1) #13
  unreachable

96:                                               ; preds = %84
  %97 = load i32, ptr @mode_op, align 4, !tbaa !4
  %98 = icmp eq i32 %97, 7
  br i1 %98, label %99, label %112

99:                                               ; preds = %96
  %100 = load ptr, ptr %8, align 8, !tbaa !219
  %101 = load ptr, ptr @lengths, align 8, !tbaa !66
  %102 = load i32, ptr @testnum, align 4, !tbaa !4
  %103 = zext i32 %102 to i64
  %104 = getelementptr inbounds nuw i32, ptr %101, i64 %103
  %105 = load i32, ptr %104, align 4, !tbaa !4
  %106 = call i32 @EVP_DecryptUpdate(ptr noundef %100, ptr noundef null, ptr noundef %9, ptr noundef null, i32 noundef %105)
  %107 = icmp ne i32 %106, 0
  br i1 %107, label %111, label %108

108:                                              ; preds = %99
  %109 = load ptr, ptr @bio_err, align 8, !tbaa !53
  %110 = call i32 (ptr, ptr, ...) @BIO_printf(ptr noundef %109, ptr noundef @.str.441)
  call void @dofail()
  call void @exit(i32 noundef 1) #13
  unreachable

111:                                              ; preds = %99
  br label %112

112:                                              ; preds = %111, %96
  %113 = load i32, ptr @aead, align 4, !tbaa !4
  %114 = icmp ne i32 %113, 0
  br i1 %114, label %115, label %123

115:                                              ; preds = %112
  %116 = load ptr, ptr %8, align 8, !tbaa !219
  %117 = call i32 @EVP_DecryptUpdate(ptr noundef %116, ptr noundef null, ptr noundef %9, ptr noundef @aad, i32 noundef 13)
  %118 = icmp ne i32 %117, 0
  br i1 %118, label %122, label %119

119:                                              ; preds = %115
  %120 = load ptr, ptr @bio_err, align 8, !tbaa !53
  %121 = call i32 (ptr, ptr, ...) @BIO_printf(ptr noundef %120, ptr noundef @.str.442)
  call void @dofail()
  call void @exit(i32 noundef 1) #13
  unreachable

122:                                              ; preds = %115
  br label %123

123:                                              ; preds = %122, %112
  %124 = load ptr, ptr %8, align 8, !tbaa !219
  %125 = load ptr, ptr %5, align 8, !tbaa !39
  %126 = load ptr, ptr %4, align 8, !tbaa !39
  %127 = load ptr, ptr @lengths, align 8, !tbaa !66
  %128 = load i32, ptr @testnum, align 4, !tbaa !4
  %129 = zext i32 %128 to i64
  %130 = getelementptr inbounds nuw i32, ptr %127, i64 %129
  %131 = load i32, ptr %130, align 4, !tbaa !4
  %132 = call i32 @EVP_DecryptUpdate(ptr noundef %124, ptr noundef %125, ptr noundef %9, ptr noundef %126, i32 noundef %131)
  %133 = icmp ne i32 %132, 0
  br i1 %133, label %137, label %134

134:                                              ; preds = %123
  %135 = load ptr, ptr @bio_err, align 8, !tbaa !53
  %136 = call i32 (ptr, ptr, ...) @BIO_printf(ptr noundef %135, ptr noundef @.str.443)
  call void @dofail()
  call void @exit(i32 noundef 1) #13
  unreachable

137:                                              ; preds = %123
  %138 = load ptr, ptr %8, align 8, !tbaa !219
  %139 = load ptr, ptr %5, align 8, !tbaa !39
  %140 = call i32 @EVP_DecryptFinal_ex(ptr noundef %138, ptr noundef %139, ptr noundef %9)
  %141 = icmp ne i32 %140, 0
  br i1 %141, label %142, label %145

142:                                              ; preds = %137
  %143 = load i32, ptr %11, align 4, !tbaa !4
  %144 = add nsw i32 %143, 1
  store i32 %144, ptr %11, align 4, !tbaa !4
  br label %145

145:                                              ; preds = %142, %137
  br label %146

146:                                              ; preds = %145
  %147 = load i32, ptr %10, align 4, !tbaa !4
  %148 = add nsw i32 %147, 1
  store i32 %148, ptr %10, align 4, !tbaa !4
  br label %26, !llvm.loop !266

149:                                              ; preds = %35
  %150 = load i32, ptr %11, align 4, !tbaa !4
  call void @llvm.lifetime.end.p0(i64 4, ptr %11) #11
  call void @llvm.lifetime.end.p0(i64 4, ptr %10) #11
  call void @llvm.lifetime.end.p0(i64 4, ptr %9) #11
  call void @llvm.lifetime.end.p0(i64 8, ptr %8) #11
  call void @llvm.lifetime.end.p0(i64 16, ptr %7) #11
  call void @llvm.lifetime.end.p0(i64 8, ptr %6) #11
  call void @llvm.lifetime.end.p0(i64 8, ptr %5) #11
  call void @llvm.lifetime.end.p0(i64 8, ptr %4) #11
  call void @llvm.lifetime.end.p0(i64 8, ptr %3) #11
  ret i32 %150
}