; Function Attrs: nounwind uwtable
define internal i32 @EVP_Update_loop_aead_dec(ptr noundef readonly captures(none) %0) #0 {
  %2 = alloca [16 x i8], align 16
  %3 = alloca i32, align 4
  %4 = load ptr, ptr %0, align 8, !tbaa !189
  %5 = getelementptr inbounds nuw i8, ptr %4, i64 16
  %6 = load ptr, ptr %5, align 8, !tbaa !53
  %7 = getelementptr inbounds nuw i8, ptr %4, i64 24
  %8 = load ptr, ptr %7, align 8, !tbaa !54
  %9 = getelementptr inbounds nuw i8, ptr %4, i64 48
  %10 = load ptr, ptr %9, align 8, !tbaa !101
  call void @llvm.lifetime.start.p0(i64 16, ptr nonnull %2) #14
  %11 = getelementptr inbounds nuw i8, ptr %4, i64 1216
  %12 = load ptr, ptr %11, align 8, !tbaa !78
  call void @llvm.lifetime.start.p0(i64 4, ptr nonnull %3) #14
  %13 = load volatile i32, ptr @run, align 4, !tbaa !13
  %.not46 = icmp eq i32 %13, 0
  br i1 %.not46, label %.critedge, label %.lr.ph

.lr.ph:                                           ; preds = %1
  %14 = getelementptr inbounds nuw i8, ptr %4, i64 56
  br label %15

15:                                               ; preds = %.lr.ph, %76
  %.048 = phi i32 [ 0, %.lr.ph ], [ %spec.select, %76 ]
  %.02547 = phi i32 [ 0, %.lr.ph ], [ %79, %76 ]
  %.b = load i1, ptr @testmode, align 4
  %16 = select i1 %.b, i32 1, i32 2147483647
  %17 = icmp samesign ult i32 %.02547, %16
  br i1 %17, label %18, label %.critedge

18:                                               ; preds = %15
  %19 = load i32, ptr @mode_op, align 4, !tbaa !13
  %.not27 = icmp eq i32 %19, 65540
  br i1 %.not27, label %.thread, label %20

20:                                               ; preds = %18
  %21 = call i32 @EVP_CIPHER_CTX_ctrl(ptr noundef %12, i32 noundef 9, i32 noundef 12, ptr noundef null) #14
  %.not28 = icmp eq i32 %21, 0
  br i1 %.not28, label %22, label %25

22:                                               ; preds = %20
  %23 = load ptr, ptr @bio_err, align 8, !tbaa !19
  %24 = call i32 (ptr, ptr, ...) @BIO_printf(ptr noundef %23, ptr noundef nonnull @.str.169) #14
  call fastcc void @dofail()
  call void @exit(i32 noundef 1) #16
  unreachable

25:                                               ; preds = %20
  %.pr = load i32, ptr @mode_op, align 4, !tbaa !13
  switch i32 %.pr, label %26 [
    i32 65541, label %.thread
    i32 65540, label %.thread
    i32 6, label %.thread
  ]

26:                                               ; preds = %25
  %27 = call i32 @EVP_CIPHER_CTX_ctrl(ptr noundef %12, i32 noundef 17, i32 noundef 16, ptr noundef null) #14
  %.not29 = icmp eq i32 %27, 0
  br i1 %.not29, label %28, label %.thread

28:                                               ; preds = %26
  %29 = load ptr, ptr @bio_err, align 8, !tbaa !19
  %30 = call i32 (ptr, ptr, ...) @BIO_printf(ptr noundef %29, ptr noundef nonnull @.str.170) #14
  call fastcc void @dofail()
  call void @exit(i32 noundef 1) #16
  unreachable

.thread:                                          ; preds = %18, %25, %25, %25, %26
  %31 = call i32 @EVP_CipherInit_ex(ptr noundef %12, ptr noundef null, ptr noundef null, ptr noundef %10, ptr noundef nonnull @aead_iv, i32 noundef -1) #14
  %.not30 = icmp eq i32 %31, 0
  br i1 %.not30, label %32, label %35

32:                                               ; preds = %.thread
  %33 = load ptr, ptr @bio_err, align 8, !tbaa !19
  %34 = call i32 (ptr, ptr, ...) @BIO_printf(ptr noundef %33, ptr noundef nonnull @.str.438) #14
  call fastcc void @dofail()
  call void @exit(i32 noundef 1) #16
  unreachable

35:                                               ; preds = %.thread
  %36 = load i32, ptr @mode_op, align 4, !tbaa !13
  %.not31 = icmp eq i32 %36, 65540
  br i1 %.not31, label %42, label %37

37:                                               ; preds = %35
  %38 = call i32 @EVP_DecryptInit_ex(ptr noundef %12, ptr noundef null, ptr noundef null, ptr noundef null, ptr noundef nonnull @aead_iv) #14
  %.not32 = icmp eq i32 %38, 0
  br i1 %.not32, label %39, label %42

39:                                               ; preds = %37
  %40 = load ptr, ptr @bio_err, align 8, !tbaa !19
  %41 = call i32 (ptr, ptr, ...) @BIO_printf(ptr noundef %40, ptr noundef nonnull @.str.439) #14
  call fastcc void @dofail()
  call void @exit(i32 noundef 1) #16
  unreachable

42:                                               ; preds = %37, %35
  call void @llvm.memcpy.p0.p0.i64(ptr noundef nonnull align 16 dereferenceable(16) %2, ptr noundef nonnull align 8 dereferenceable(16) %14, i64 16, i1 false)
  %43 = call i32 @EVP_CIPHER_CTX_ctrl(ptr noundef %12, i32 noundef 17, i32 noundef 16, ptr noundef nonnull %2) #14
  %.not33 = icmp eq i32 %43, 0
  br i1 %.not33, label %44, label %47

44:                                               ; preds = %42
  %45 = load ptr, ptr @bio_err, align 8, !tbaa !19
  %46 = call i32 (ptr, ptr, ...) @BIO_printf(ptr noundef %45, ptr noundef nonnull @.str.440) #14
  call fastcc void @dofail()
  call void @exit(i32 noundef 1) #16
  unreachable

47:                                               ; preds = %42
  %48 = load i32, ptr @mode_op, align 4, !tbaa !13
  %49 = icmp eq i32 %48, 7
  br i1 %49, label %50, label %60

50:                                               ; preds = %47
  %51 = load ptr, ptr @lengths, align 8, !tbaa !26
  %52 = load i32, ptr @testnum, align 4, !tbaa !13
  %53 = zext i32 %52 to i64
  %54 = getelementptr inbounds nuw i32, ptr %51, i64 %53
  %55 = load i32, ptr %54, align 4, !tbaa !13
  %56 = call i32 @EVP_DecryptUpdate(ptr noundef %12, ptr noundef null, ptr noundef nonnull %3, ptr noundef null, i32 noundef %55) #14
  %.not34 = icmp eq i32 %56, 0
  br i1 %.not34, label %57, label %60

57:                                               ; preds = %50
  %58 = load ptr, ptr @bio_err, align 8, !tbaa !19
  %59 = call i32 (ptr, ptr, ...) @BIO_printf(ptr noundef %58, ptr noundef nonnull @.str.441) #14
  call fastcc void @dofail()
  call void @exit(i32 noundef 1) #16
  unreachable

60:                                               ; preds = %50, %47
  %.b26 = load i1, ptr @aead, align 4
  br i1 %.b26, label %61, label %66

61:                                               ; preds = %60
  %62 = call i32 @EVP_DecryptUpdate(ptr noundef %12, ptr noundef null, ptr noundef nonnull %3, ptr noundef nonnull @aad, i32 noundef 13) #14
  %.not35 = icmp eq i32 %62, 0
  br i1 %.not35, label %63, label %66

63:                                               ; preds = %61
  %64 = load ptr, ptr @bio_err, align 8, !tbaa !19
  %65 = call i32 (ptr, ptr, ...) @BIO_printf(ptr noundef %64, ptr noundef nonnull @.str.442) #14
  call fastcc void @dofail()
  call void @exit(i32 noundef 1) #16
  unreachable

66:                                               ; preds = %61, %60
  %67 = load ptr, ptr @lengths, align 8, !tbaa !26
  %68 = load i32, ptr @testnum, align 4, !tbaa !13
  %69 = zext i32 %68 to i64
  %70 = getelementptr inbounds nuw i32, ptr %67, i64 %69
  %71 = load i32, ptr %70, align 4, !tbaa !13
  %72 = call i32 @EVP_DecryptUpdate(ptr noundef %12, ptr noundef %8, ptr noundef nonnull %3, ptr noundef %6, i32 noundef %71) #14
  %.not36 = icmp eq i32 %72, 0
  br i1 %.not36, label %73, label %76

73:                                               ; preds = %66
  %74 = load ptr, ptr @bio_err, align 8, !tbaa !19
  %75 = call i32 (ptr, ptr, ...) @BIO_printf(ptr noundef %74, ptr noundef nonnull @.str.443) #14
  call fastcc void @dofail()
  call void @exit(i32 noundef 1) #16
  unreachable

76:                                               ; preds = %66
  %77 = call i32 @EVP_DecryptFinal_ex(ptr noundef %12, ptr noundef %8, ptr noundef nonnull %3) #14
  %.not37 = icmp ne i32 %77, 0
  %78 = zext i1 %.not37 to i32
  %spec.select = add nuw nsw i32 %.048, %78
  %79 = add nuw nsw i32 %.02547, 1
  %80 = load volatile i32, ptr @run, align 4, !tbaa !13
  %.not = icmp eq i32 %80, 0
  br i1 %.not, label %.critedge, label %15, !llvm.loop !213

.critedge:                                        ; preds = %15, %76, %1
  %.0.lcssa = phi i32 [ 0, %1 ], [ %spec.select, %76 ], [ %.048, %15 ]
  call void @llvm.lifetime.end.p0(i64 4, ptr nonnull %3) #14
  call void @llvm.lifetime.end.p0(i64 16, ptr nonnull %2) #14
  ret i32 %.0.lcssa
}